target datalayout = "e-m:e-p270:32:32-p271:32:32-p272:64:64-i64:64-i128:128-f80:128-n8:16:32:64-S128"
target triple = "x86_64-pc-linux-gnu"

%"class.std::__cxx11::basic_string" = type { %"struct.std::__cxx11::basic_string<char>::_Alloc_hider", i64, %union.anon }
%"struct.std::__cxx11::basic_string<char>::_Alloc_hider" = type { ptr }
%union.anon = type { i64, [8 x i8] }
%"struct.zmq::socks_request_t" = type <{ i8, [7 x i8], %"class.std::__cxx11::basic_string", i16, [6 x i8] }>
%"class.zmq::socks_request_encoder_t" = type <{ i64, i64, [262 x i8], [2 x i8] }>
%struct.addrinfo = type { i32, i32, i32, i32, i32, ptr, ptr, ptr }
%struct.sockaddr_in = type { i16, i16, %struct.in_addr, [8 x i8] }
%struct.in_addr = type { i32 }
%struct.sockaddr_in6 = type { i16, i16, i32, %struct.in6_addr, i32 }
%struct.in6_addr = type { %union.anon.0 }
%union.anon.0 = type { [4 x i32] }

@stderr = external global ptr, align 8
@.str = private unnamed_addr constant [30 x i8] c"Assertion failed: %s (%s:%d)\0A\00", align 1
@.str.2 = private unnamed_addr constant [105 x i8] c"generated/home/dtcxzyw/WorkSpace/Projects/compilers/llvm-opt-benchmark/bench/libzmq/libzmq/src/socks.cpp\00", align 1
@.str.7 = private unnamed_addr constant [35 x i8] c"req_.hostname.size () <= UINT8_MAX\00", align 1

; Function Attrs: noinline noreturn nounwind uwtable
define linkonce_odr hidden void @__clang_call_terminate(ptr noundef %0) #8 comdat {
  %2 = call ptr @__cxa_begin_catch(ptr %0) #14
  call void @_ZSt9terminatev() #15
  unreachable
}

; Function Attrs: mustprogress nounwind uwtable
define available_externally noundef ptr @_ZNKSt7__cxx1112basic_stringIcSt11char_traitsIcESaIcEE7_M_dataEv(ptr noundef nonnull align 8 dereferenceable(32) %0) #0 align 2 {
  %2 = alloca ptr, align 8
  store ptr %0, ptr %2, align 8, !tbaa !36
  %3 = load ptr, ptr %2, align 8
  %4 = getelementptr inbounds nuw %"class.std::__cxx11::basic_string", ptr %3, i32 0, i32 0
  %5 = getelementptr inbounds nuw %"struct.std::__cxx11::basic_string<char>::_Alloc_hider", ptr %4, i32 0, i32 0
  %6 = load ptr, ptr %5, align 8, !tbaa !89
  ret ptr %6
}

; Function Attrs: mustprogress nounwind uwtable
define available_externally noundef ptr @_ZNKSt7__cxx1112basic_stringIcSt11char_traitsIcESaIcEE5c_strEv(ptr noundef nonnull align 8 dereferenceable(32) %0) #0 align 2 personality ptr @__gxx_personality_v0 {
  %2 = alloca ptr, align 8
  store ptr %0, ptr %2, align 8, !tbaa !36
  %3 = load ptr, ptr %2, align 8
  %4 = invoke noundef ptr @_ZNKSt7__cxx1112basic_stringIcSt11char_traitsIcESaIcEE7_M_dataEv(ptr noundef nonnull align 8 dereferenceable(32) %3)
          to label %5 unwind label %6

5:                                                ; preds = %1
  ret ptr %4

6:                                                ; preds = %1
  %7 = landingpad { ptr, i32 }
          catch ptr null
  %8 = extractvalue { ptr, i32 } %7, 0
  call void @__clang_call_terminate(ptr %8) #15
  unreachable
}

; Function Attrs: mustprogress nounwind uwtable
define available_externally noundef i64 @_ZNKSt7__cxx1112basic_stringIcSt11char_traitsIcESaIcEE4sizeEv(ptr noundef nonnull align 8 dereferenceable(32) %0) #0 align 2 {
  %2 = alloca ptr, align 8
  store ptr %0, ptr %2, align 8, !tbaa !36
  %3 = load ptr, ptr %2, align 8
  %4 = getelementptr inbounds nuw %"class.std::__cxx11::basic_string", ptr %3, i32 0, i32 1
  %5 = load i64, ptr %4, align 8, !tbaa !38
  ret i64 %5
}

; Function Attrs: mustprogress uwtable
define void @_ZN3zmq23socks_request_encoder_t6encodeERKNS_15socks_request_tE(ptr noundef nonnull align 8 dereferenceable(278) %0, ptr noundef nonnull align 8 dereferenceable(42) %1) #2 align 2 {
  %3 = alloca ptr, align 8
  %4 = alloca ptr, align 8
  %5 = alloca ptr, align 8
  %6 = alloca %struct.addrinfo, align 8
  %7 = alloca ptr, align 8
  %8 = alloca i32, align 4
  %9 = alloca ptr, align 8
  %10 = alloca ptr, align 8
  store ptr %0, ptr %3, align 8, !tbaa !61
  store ptr %1, ptr %4, align 8, !tbaa !54
  %11 = load ptr, ptr %3, align 8
  br label %12

12:                                               ; preds = %2
  %13 = load ptr, ptr %4, align 8, !tbaa !54
  %14 = getelementptr inbounds nuw %"struct.zmq::socks_request_t", ptr %13, i32 0, i32 2
  %15 = call noundef i64 @_ZNKSt7__cxx1112basic_stringIcSt11char_traitsIcESaIcEE4sizeEv(ptr noundef nonnull align 8 dereferenceable(32) %14) #14
  %16 = icmp ule i64 %15, 255
  %17 = xor i1 %16, true
  %18 = zext i1 %17 to i64
  %19 = call i64 @llvm.expect.i64(i64 %18, i64 0)
  %20 = icmp ne i64 %19, 0
  br i1 %20, label %21, label %26

21:                                               ; preds = %12
  %22 = load ptr, ptr @stderr, align 8, !tbaa !32
  %23 = call i32 (ptr, ptr, ...) @fprintf(ptr noundef %22, ptr noundef @.str, ptr noundef @.str.7, ptr noundef @.str.2, i32 noundef 208) #14
  %24 = load ptr, ptr @stderr, align 8, !tbaa !32
  %25 = call i32 @fflush(ptr noundef %24)
  call void @_ZN3zmq9zmq_abortEPKc(ptr noundef @.str.7)
  br label %26

26:                                               ; preds = %21, %12
  br label %27

27:                                               ; preds = %26
  call void @llvm.lifetime.start.p0(i64 8, ptr %5) #14
  %28 = getelementptr inbounds nuw %"class.zmq::socks_request_encoder_t", ptr %11, i32 0, i32 2
  %29 = getelementptr inbounds [262 x i8], ptr %28, i64 0, i64 0
  store ptr %29, ptr %5, align 8, !tbaa !12
  %30 = load ptr, ptr %5, align 8, !tbaa !12
  %31 = getelementptr inbounds nuw i8, ptr %30, i32 1
  store ptr %31, ptr %5, align 8, !tbaa !12
  store i8 5, ptr %30, align 1, !tbaa !8
  %32 = load ptr, ptr %4, align 8, !tbaa !54
  %33 = getelementptr inbounds nuw %"struct.zmq::socks_request_t", ptr %32, i32 0, i32 0
  %34 = load i8, ptr %33, align 8, !tbaa !58
  %35 = load ptr, ptr %5, align 8, !tbaa !12
  %36 = getelementptr inbounds nuw i8, ptr %35, i32 1
  store ptr %36, ptr %5, align 8, !tbaa !12
  store i8 %34, ptr %35, align 1, !tbaa !8
  %37 = load ptr, ptr %5, align 8, !tbaa !12
  %38 = getelementptr inbounds nuw i8, ptr %37, i32 1
  store ptr %38, ptr %5, align 8, !tbaa !12
  store i8 0, ptr %37, align 1, !tbaa !8
  call void @llvm.lifetime.start.p0(i64 48, ptr %6) #14
  call void @llvm.lifetime.start.p0(i64 8, ptr %7) #14
  store ptr null, ptr %7, align 8, !tbaa !66
  call void @llvm.memset.p0.i64(ptr align 8 %6, i8 0, i64 48, i1 false)
  %39 = getelementptr inbounds nuw %struct.addrinfo, ptr %6, i32 0, i32 0
  store i32 4, ptr %39, align 8, !tbaa !68
  call void @llvm.lifetime.start.p0(i64 4, ptr %8) #14
  %40 = load ptr, ptr %4, align 8, !tbaa !54
  %41 = getelementptr inbounds nuw %"struct.zmq::socks_request_t", ptr %40, i32 0, i32 2
  %42 = call noundef ptr @_ZNKSt7__cxx1112basic_stringIcSt11char_traitsIcESaIcEE5c_strEv(ptr noundef nonnull align 8 dereferenceable(32) %41) #14
  %43 = call i32 @getaddrinfo(ptr noundef %42, ptr noundef null, ptr noundef %6, ptr noundef %7)
  store i32 %43, ptr %8, align 4, !tbaa !22
  %44 = load i32, ptr %8, align 4, !tbaa !22
  %45 = icmp eq i32 %44, 0
  br i1 %45, label %46, label %62

46:                                               ; preds = %27
  %47 = load ptr, ptr %7, align 8, !tbaa !66
  %48 = getelementptr inbounds nuw %struct.addrinfo, ptr %47, i32 0, i32 1
  %49 = load i32, ptr %48, align 4, !tbaa !71
  %50 = icmp eq i32 %49, 2
  br i1 %50, label %51, label %62

51:                                               ; preds = %46
  call void @llvm.lifetime.start.p0(i64 8, ptr %9) #14
  %52 = load ptr, ptr %7, align 8, !tbaa !66
  %53 = getelementptr inbounds nuw %struct.addrinfo, ptr %52, i32 0, i32 5
  %54 = load ptr, ptr %53, align 8, !tbaa !72
  store ptr %54, ptr %9, align 8, !tbaa !73
  %55 = load ptr, ptr %5, align 8, !tbaa !12
  %56 = getelementptr inbounds nuw i8, ptr %55, i32 1
  store ptr %56, ptr %5, align 8, !tbaa !12
  store i8 1, ptr %55, align 1, !tbaa !8
  %57 = load ptr, ptr %5, align 8, !tbaa !12
  %58 = load ptr, ptr %9, align 8, !tbaa !73
  %59 = getelementptr inbounds nuw %struct.sockaddr_in, ptr %58, i32 0, i32 2
  call void @llvm.memcpy.p0.p0.i64(ptr align 1 %57, ptr align 4 %59, i64 4, i1 false)
  %60 = load ptr, ptr %5, align 8, !tbaa !12
  %61 = getelementptr inbounds i8, ptr %60, i64 4
  store ptr %61, ptr %5, align 8, !tbaa !12
  call void @llvm.lifetime.end.p0(i64 8, ptr %9) #14
  br label %103

62:                                               ; preds = %46, %27
  %63 = load i32, ptr %8, align 4, !tbaa !22
  %64 = icmp eq i32 %63, 0
  br i1 %64, label %65, label %81

65:                                               ; preds = %62
  %66 = load ptr, ptr %7, align 8, !tbaa !66
  %67 = getelementptr inbounds nuw %struct.addrinfo, ptr %66, i32 0, i32 1
  %68 = load i32, ptr %67, align 4, !tbaa !71
  %69 = icmp eq i32 %68, 10
  br i1 %69, label %70, label %81

70:                                               ; preds = %65
  call void @llvm.lifetime.start.p0(i64 8, ptr %10) #14
  %71 = load ptr, ptr %7, align 8, !tbaa !66
  %72 = getelementptr inbounds nuw %struct.addrinfo, ptr %71, i32 0, i32 5
  %73 = load ptr, ptr %72, align 8, !tbaa !72
  store ptr %73, ptr %10, align 8, !tbaa !75
  %74 = load ptr, ptr %5, align 8, !tbaa !12
  %75 = getelementptr inbounds nuw i8, ptr %74, i32 1
  store ptr %75, ptr %5, align 8, !tbaa !12
  store i8 4, ptr %74, align 1, !tbaa !8
  %76 = load ptr, ptr %5, align 8, !tbaa !12
  %77 = load ptr, ptr %10, align 8, !tbaa !75
  %78 = getelementptr inbounds nuw %struct.sockaddr_in6, ptr %77, i32 0, i32 3
  call void @llvm.memcpy.p0.p0.i64(ptr align 1 %76, ptr align 4 %78, i64 16, i1 false)
  %79 = load ptr, ptr %5, align 8, !tbaa !12
  %80 = getelementptr inbounds i8, ptr %79, i64 16
  store ptr %80, ptr %5, align 8, !tbaa !12
  call void @llvm.lifetime.end.p0(i64 8, ptr %10) #14
  br label %102

81:                                               ; preds = %65, %62
  %82 = load ptr, ptr %5, align 8, !tbaa !12
  %83 = getelementptr inbounds nuw i8, ptr %82, i32 1
  store ptr %83, ptr %5, align 8, !tbaa !12
  store i8 3, ptr %82, align 1, !tbaa !8
  %84 = load ptr, ptr %4, align 8, !tbaa !54
  %85 = getelementptr inbounds nuw %"struct.zmq::socks_request_t", ptr %84, i32 0, i32 2
  %86 = call noundef i64 @_ZNKSt7__cxx1112basic_stringIcSt11char_traitsIcESaIcEE4sizeEv(ptr noundef nonnull align 8 dereferenceable(32) %85) #14
  %87 = trunc i64 %86 to i8
  %88 = load ptr, ptr %5, align 8, !tbaa !12
  %89 = getelementptr inbounds nuw i8, ptr %88, i32 1
  store ptr %89, ptr %5, align 8, !tbaa !12
  store i8 %87, ptr %88, align 1, !tbaa !8
  %90 = load ptr, ptr %5, align 8, !tbaa !12
  %91 = load ptr, ptr %4, align 8, !tbaa !54
  %92 = getelementptr inbounds nuw %"struct.zmq::socks_request_t", ptr %91, i32 0, i32 2
  %93 = call noundef ptr @_ZNKSt7__cxx1112basic_stringIcSt11char_traitsIcESaIcEE5c_strEv(ptr noundef nonnull align 8 dereferenceable(32) %92) #14
  %94 = load ptr, ptr %4, align 8, !tbaa !54
  %95 = getelementptr inbounds nuw %"struct.zmq::socks_request_t", ptr %94, i32 0, i32 2
  %96 = call noundef i64 @_ZNKSt7__cxx1112basic_stringIcSt11char_traitsIcESaIcEE4sizeEv(ptr noundef nonnull align 8 dereferenceable(32) %95) #14
  call void @llvm.memcpy.p0.p0.i64(ptr align 1 %90, ptr align 1 %93, i64 %96, i1 false)
  %97 = load ptr, ptr %4, align 8, !tbaa !54
  %98 = getelementptr inbounds nuw %"struct.zmq::socks_request_t", ptr %97, i32 0, i32 2
  %99 = call noundef i64 @_ZNKSt7__cxx1112basic_stringIcSt11char_traitsIcESaIcEE4sizeEv(ptr noundef nonnull align 8 dereferenceable(32) %98) #14
  %100 = load ptr, ptr %5, align 8, !tbaa !12
  %101 = getelementptr inbounds nuw i8, ptr %100, i64 %99
  store ptr %101, ptr %5, align 8, !tbaa !12
  br label %102

102:                                              ; preds = %81, %70
  br label %103

103:                                              ; preds = %102, %51
  %104 = load i32, ptr %8, align 4, !tbaa !22
  %105 = icmp eq i32 %104, 0
  br i1 %105, label %106, label %108

106:                                              ; preds = %103
  %107 = load ptr, ptr %7, align 8, !tbaa !66
  call void @freeaddrinfo(ptr noundef %107) #14
  br label %108

108:                                              ; preds = %106, %103
  %109 = load ptr, ptr %4, align 8, !tbaa !54
  %110 = getelementptr inbounds nuw %"struct.zmq::socks_request_t", ptr %109, i32 0, i32 3
  %111 = load i16, ptr %110, align 8, !tbaa !60
  %112 = zext i16 %111 to i32
  %113 = sdiv i32 %112, 256
  %114 = trunc i32 %113 to i8
  %115 = load ptr, ptr %5, align 8, !tbaa !12
  %116 = getelementptr inbounds nuw i8, ptr %115, i32 1
  store ptr %116, ptr %5, align 8, !tbaa !12
  store i8 %114, ptr %115, align 1, !tbaa !8
  %117 = load ptr, ptr %4, align 8, !tbaa !54
  %118 = getelementptr inbounds nuw %"struct.zmq::socks_request_t", ptr %117, i32 0, i32 3
  %119 = load i16, ptr %118, align 8, !tbaa !60
  %120 = zext i16 %119 to i32
  %121 = srem i32 %120, 256
  %122 = trunc i32 %121 to i8
  %123 = load ptr, ptr %5, align 8, !tbaa !12
  %124 = getelementptr inbounds nuw i8, ptr %123, i32 1
  store ptr %124, ptr %5, align 8, !tbaa !12
  store i8 %122, ptr %123, align 1, !tbaa !8
  %125 = load ptr, ptr %5, align 8, !tbaa !12
  %126 = getelementptr inbounds nuw %"class.zmq::socks_request_encoder_t", ptr %11, i32 0, i32 2
  %127 = getelementptr inbounds [262 x i8], ptr %126, i64 0, i64 0
  %128 = ptrtoint ptr %125 to i64
  %129 = ptrtoint ptr %127 to i64
  %130 = sub i64 %128, %129
  %131 = getelementptr inbounds nuw %"class.zmq::socks_request_encoder_t", ptr %11, i32 0, i32 0
  store i64 %130, ptr %131, align 8, !tbaa !63
  %132 = getelementptr inbounds nuw %"class.zmq::socks_request_encoder_t", ptr %11, i32 0, i32 1
  store i64 0, ptr %132, align 8, !tbaa !65
  call void @llvm.lifetime.end.p0(i64 4, ptr %8) #14
  call void @llvm.lifetime.end.p0(i64 8, ptr %7) #14
  call void @llvm.lifetime.end.p0(i64 48, ptr %6) #14
  call void @llvm.lifetime.end.p0(i64 8, ptr %5) #14
  ret void
}