; Function Attrs: mustprogress uwtable
define void @_ZN3zmq23socks_request_encoder_t6encodeERKNS_15socks_request_tE(ptr noundef nonnull align 8 dereferenceable(278) initializes((16, 21)) %0, ptr noundef nonnull readonly align 8 captures(none) dereferenceable(42) %1) local_unnamed_addr #3 align 2 personality ptr @__gxx_personality_v0 {
  %3 = alloca %struct.addrinfo, align 8
  %4 = alloca ptr, align 8
  %5 = getelementptr inbounds nuw i8, ptr %1, i64 8
  %6 = getelementptr inbounds nuw i8, ptr %1, i64 16
  %7 = load i64, ptr %6, align 8, !tbaa !29
  %8 = icmp ugt i64 %7, 255
  br i1 %8, label %9, label %14, !prof !19

9:                                                ; preds = %2
  %10 = load ptr, ptr @stderr, align 8, !tbaa !20
  %11 = tail call i32 (ptr, ptr, ...) @fprintf(ptr noundef %10, ptr noundef nonnull @.str, ptr noundef nonnull @.str.7, ptr noundef nonnull @.str.2, i32 noundef 208) #13
  %12 = load ptr, ptr @stderr, align 8, !tbaa !20
  %13 = tail call i32 @fflush(ptr noundef %12)
  tail call void @_ZN3zmq9zmq_abortEPKc(ptr noundef nonnull @.str.7)
  br label %14

14:                                               ; preds = %2, %9
  %15 = getelementptr inbounds nuw i8, ptr %0, i64 16
  %16 = getelementptr inbounds nuw i8, ptr %0, i64 17
  store i8 5, ptr %15, align 8, !tbaa !8
  %17 = load i8, ptr %1, align 8, !tbaa !38
  %18 = getelementptr inbounds nuw i8, ptr %0, i64 18
  store i8 %17, ptr %16, align 1, !tbaa !8
  %19 = getelementptr inbounds nuw i8, ptr %0, i64 19
  store i8 0, ptr %18, align 2, !tbaa !8
  call void @llvm.lifetime.start.p0(i64 48, ptr nonnull %3) #14
  call void @llvm.lifetime.start.p0(i64 8, ptr nonnull %4) #14
  store ptr null, ptr %4, align 8, !tbaa !42
  call void @llvm.memset.p0.i64(ptr noundef nonnull align 8 dereferenceable(48) %3, i8 0, i64 48, i1 false)
  store i32 4, ptr %3, align 8, !tbaa !44
  %20 = load ptr, ptr %5, align 8, !tbaa !27
  %21 = call i32 @getaddrinfo(ptr noundef %20, ptr noundef null, ptr noundef nonnull %3, ptr noundef nonnull %4)
  %22 = icmp eq i32 %21, 0
  br i1 %22, label %23, label %40

23:                                               ; preds = %14
  %24 = load ptr, ptr %4, align 8, !tbaa !42
  %25 = getelementptr inbounds nuw i8, ptr %24, i64 4
  %26 = load i32, ptr %25, align 4, !tbaa !48
  switch i32 %26, label %40 [
    i32 2, label %27
    i32 10, label %34
  ]

27:                                               ; preds = %23
  %28 = getelementptr inbounds nuw i8, ptr %24, i64 24
  %29 = load ptr, ptr %28, align 8, !tbaa !49
  %30 = getelementptr inbounds nuw i8, ptr %0, i64 20
  store i8 1, ptr %19, align 1, !tbaa !8
  %31 = getelementptr inbounds nuw i8, ptr %29, i64 4
  %32 = load i32, ptr %31, align 4
  store i32 %32, ptr %30, align 4
  %33 = getelementptr inbounds nuw i8, ptr %0, i64 24
  br label %.thread

34:                                               ; preds = %23
  %35 = getelementptr inbounds nuw i8, ptr %24, i64 24
  %36 = load ptr, ptr %35, align 8, !tbaa !49
  %37 = getelementptr inbounds nuw i8, ptr %0, i64 20
  store i8 4, ptr %19, align 1, !tbaa !8
  %38 = getelementptr inbounds nuw i8, ptr %36, i64 8
  call void @llvm.memcpy.p0.p0.i64(ptr noundef nonnull align 4 dereferenceable(16) %37, ptr noundef nonnull align 4 dereferenceable(16) %38, i64 16, i1 false)
  %39 = getelementptr inbounds nuw i8, ptr %0, i64 36
  br label %.thread

40:                                               ; preds = %23, %14
  %41 = getelementptr inbounds nuw i8, ptr %0, i64 20
  store i8 3, ptr %19, align 1, !tbaa !8
  %42 = load i64, ptr %6, align 8, !tbaa !29
  %43 = trunc i64 %42 to i8
  %44 = getelementptr inbounds nuw i8, ptr %0, i64 21
  store i8 %43, ptr %41, align 4, !tbaa !8
  %45 = load ptr, ptr %5, align 8, !tbaa !27
  %46 = load i64, ptr %6, align 8, !tbaa !29
  call void @llvm.memcpy.p0.p0.i64(ptr nonnull align 1 %44, ptr align 1 %45, i64 %46, i1 false)
  %47 = load i64, ptr %6, align 8, !tbaa !29
  %48 = getelementptr inbounds nuw i8, ptr %44, i64 %47
  br i1 %22, label %..thread_crit_edge, label %50

..thread_crit_edge:                               ; preds = %40
  %.pre = load ptr, ptr %4, align 8, !tbaa !42
  br label %.thread

.thread:                                          ; preds = %..thread_crit_edge, %27, %34
  %49 = phi ptr [ %.pre, %..thread_crit_edge ], [ %24, %34 ], [ %24, %27 ]
  %.032 = phi ptr [ %48, %..thread_crit_edge ], [ %39, %34 ], [ %33, %27 ]
  call void @freeaddrinfo(ptr noundef %49) #14
  br label %50

50:                                               ; preds = %.thread, %40
  %.031 = phi ptr [ %.032, %.thread ], [ %48, %40 ]
  %51 = getelementptr inbounds nuw i8, ptr %1, i64 40
  %52 = load i16, ptr %51, align 8, !tbaa !41
  %53 = lshr i16 %52, 8
  %54 = trunc nuw i16 %53 to i8
  %55 = getelementptr inbounds nuw i8, ptr %.031, i64 1
  store i8 %54, ptr %.031, align 1, !tbaa !8
  %56 = load i16, ptr %51, align 8, !tbaa !41
  %57 = trunc i16 %56 to i8
  %58 = getelementptr inbounds nuw i8, ptr %.031, i64 2
  store i8 %57, ptr %55, align 1, !tbaa !8
  %59 = ptrtoint ptr %58 to i64
  %60 = ptrtoint ptr %15 to i64
  %61 = sub i64 %59, %60
  store i64 %61, ptr %0, align 8, !tbaa !50
  %62 = getelementptr inbounds nuw i8, ptr %0, i64 8
  store i64 0, ptr %62, align 8, !tbaa !52
  call void @llvm.lifetime.end.p0(i64 8, ptr nonnull %4) #14
  call void @llvm.lifetime.end.p0(i64 48, ptr nonnull %3) #14
  ret void
}